; Function Attrs: mustprogress nofree norecurse nosync nounwind willreturn memory(read, inaccessiblemem: none) uwtable
define noundef zeroext i1 @_ZNK32pxrInternal_v0_24__pxrReserved__16HdRenderSettings7IsValidEv(ptr nocapture noundef nonnull readonly align 8 dereferenceable(160) %0) local_unnamed_addr #6 align 2 personality ptr @__gxx_personality_v0 {
  %2 = getelementptr inbounds nuw i8, ptr %0, i64 32
  %3 = load ptr, ptr %2, align 8
  %4 = getelementptr inbounds i8, ptr %0, i64 40
  %5 = load ptr, ptr %4, align 8
  %6 = icmp eq ptr %3, %5
  br i1 %6, label %10, label %7

7:                                                ; preds = %1
  %8 = getelementptr inbounds nuw i8, ptr %3, i64 56
  %9 = load i32, ptr %8, align 4
  %.not.i = icmp ne i32 %9, 0
  br label %10

10:                                               ; preds = %7, %1
  %11 = phi i1 [ false, %1 ], [ %.not.i, %7 ]
  ret i1 %11
}